target datalayout = "e-m:e-p270:32:32-p271:32:32-p272:64:64-i64:64-i128:128-f80:128-n8:16:32:64-S128"
target triple = "x86_64-pc-linux-gnu"

%struct._typeobject = type { %struct.PyVarObject, ptr, i64, i64, ptr, i64, ptr, ptr, ptr, ptr, ptr, ptr, ptr, ptr, ptr, ptr, ptr, ptr, ptr, i64, ptr, ptr, ptr, ptr, i64, ptr, ptr, ptr, ptr, ptr, ptr, ptr, ptr, ptr, i64, ptr, ptr, ptr, ptr, ptr, ptr, ptr, ptr, ptr, ptr, ptr, i32, ptr, ptr, i8, i16 }
%struct.PyVarObject = type { %struct._object, i64 }
%struct._object = type { %union.anon, ptr }
%union.anon = type { i64 }
%struct.calliterobject = type { %struct._object, ptr, ptr }
%struct.anon = type { i32, i32 }

@_Py_tss_tstate = external thread_local global ptr, align 8
@PyExc_StopIteration = external global ptr, align 8

; Function Attrs: inlinehint nounwind uwtable
define internal i32 @PyType_HasFeature(ptr noundef %0, i64 noundef %1) #3 {
  %3 = alloca ptr, align 8
  %4 = alloca i64, align 8
  %5 = alloca i64, align 8
  store ptr %0, ptr %3, align 8, !tbaa !116
  store i64 %1, ptr %4, align 8, !tbaa !98
  call void @llvm.lifetime.start.p0(i64 8, ptr %5) #7
  %6 = load ptr, ptr %3, align 8, !tbaa !116
  %7 = getelementptr inbounds nuw %struct._typeobject, ptr %6, i32 0, i32 19
  %8 = load i64, ptr %7, align 8, !tbaa !119
  store i64 %8, ptr %5, align 8, !tbaa !98
  %9 = load i64, ptr %5, align 8, !tbaa !98
  %10 = load i64, ptr %4, align 8, !tbaa !98
  %11 = and i64 %9, %10
  %12 = icmp ne i64 %11, 0
  %13 = zext i1 %12 to i32
  call void @llvm.lifetime.end.p0(i64 8, ptr %5) #7
  ret i32 %13
}

; Function Attrs: inlinehint nounwind uwtable
define internal ptr @_Py_TYPE(ptr noundef %0) #3 {
  %2 = alloca ptr, align 8
  store ptr %0, ptr %2, align 8, !tbaa !4
  %3 = load ptr, ptr %2, align 8, !tbaa !4
  %4 = getelementptr inbounds nuw %struct._object, ptr %3, i32 0, i32 1
  %5 = load ptr, ptr %4, align 8, !tbaa !118
  ret ptr %5
}

; Function Attrs: inlinehint nounwind uwtable
define internal i64 @_PyVectorcall_NARGS(i64 noundef %0) #3 {
  %2 = alloca i64, align 8
  store i64 %0, ptr %2, align 8, !tbaa !98
  %3 = load i64, ptr %2, align 8, !tbaa !98
  %4 = and i64 %3, 9223372036854775807
  ret i64 %4
}

; Function Attrs: inlinehint nounwind uwtable
define internal ptr @_PyVectorcall_FunctionInline(ptr noundef %0) #3 {
  %2 = alloca ptr, align 8
  %3 = alloca ptr, align 8
  %4 = alloca ptr, align 8
  %5 = alloca i32, align 4
  %6 = alloca i64, align 8
  %7 = alloca ptr, align 8
  store ptr %0, ptr %3, align 8, !tbaa !4
  call void @llvm.lifetime.start.p0(i64 8, ptr %4) #7
  %8 = load ptr, ptr %3, align 8, !tbaa !4
  %9 = call ptr @_Py_TYPE(ptr noundef %8)
  store ptr %9, ptr %4, align 8, !tbaa !116
  %10 = load ptr, ptr %4, align 8, !tbaa !116
  %11 = call i32 @PyType_HasFeature(ptr noundef %10, i64 noundef 2048)
  %12 = icmp ne i32 %11, 0
  br i1 %12, label %14, label %13

13:                                               ; preds = %1
  store ptr null, ptr %2, align 8
  store i32 1, ptr %5, align 4
  br label %22

14:                                               ; preds = %1
  call void @llvm.lifetime.start.p0(i64 8, ptr %6) #7
  %15 = load ptr, ptr %4, align 8, !tbaa !116
  %16 = getelementptr inbounds nuw %struct._typeobject, ptr %15, i32 0, i32 5
  %17 = load i64, ptr %16, align 8, !tbaa !117
  store i64 %17, ptr %6, align 8, !tbaa !98
  call void @llvm.lifetime.start.p0(i64 8, ptr %7) #7
  %18 = load ptr, ptr %3, align 8, !tbaa !4
  %19 = load i64, ptr %6, align 8, !tbaa !98
  %20 = getelementptr i8, ptr %18, i64 %19
  call void @llvm.memcpy.p0.p0.i64(ptr align 8 %7, ptr align 1 %20, i64 8, i1 false)
  %21 = load ptr, ptr %7, align 8, !tbaa !9
  store ptr %21, ptr %2, align 8
  store i32 1, ptr %5, align 4
  call void @llvm.lifetime.end.p0(i64 8, ptr %7) #7
  call void @llvm.lifetime.end.p0(i64 8, ptr %6) #7
  br label %22

22:                                               ; preds = %14, %13
  call void @llvm.lifetime.end.p0(i64 8, ptr %4) #7
  %23 = load ptr, ptr %2, align 8
  ret ptr %23
}

; Function Attrs: alwaysinline nounwind uwtable
define internal i32 @_Py_IsImmortal(ptr noundef %0) #4 {
  %2 = alloca ptr, align 8
  store ptr %0, ptr %2, align 8, !tbaa !4
  %3 = load ptr, ptr %2, align 8, !tbaa !4
  %4 = getelementptr inbounds nuw %struct._object, ptr %3, i32 0, i32 0
  %5 = getelementptr inbounds nuw %struct.anon, ptr %4, i32 0, i32 0
  %6 = load i32, ptr %5, align 8, !tbaa !112
  %7 = icmp slt i32 %6, 0
  %8 = zext i1 %7 to i32
  ret i32 %8
}

; Function Attrs: inlinehint nounwind uwtable
define internal ptr @_PyObject_VectorcallTstate(ptr noundef %0, ptr noundef %1, ptr noundef %2, i64 noundef %3, ptr noundef %4) #3 {
  %6 = alloca ptr, align 8
  %7 = alloca ptr, align 8
  %8 = alloca ptr, align 8
  %9 = alloca ptr, align 8
  %10 = alloca i64, align 8
  %11 = alloca ptr, align 8
  %12 = alloca ptr, align 8
  %13 = alloca ptr, align 8
  %14 = alloca i64, align 8
  %15 = alloca i32, align 4
  store ptr %0, ptr %7, align 8, !tbaa !114
  store ptr %1, ptr %8, align 8, !tbaa !4
  store ptr %2, ptr %9, align 8, !tbaa !104
  store i64 %3, ptr %10, align 8, !tbaa !98
  store ptr %4, ptr %11, align 8, !tbaa !4
  call void @llvm.lifetime.start.p0(i64 8, ptr %12) #7
  call void @llvm.lifetime.start.p0(i64 8, ptr %13) #7
  %16 = load ptr, ptr %8, align 8, !tbaa !4
  %17 = call ptr @_PyVectorcall_FunctionInline(ptr noundef %16)
  store ptr %17, ptr %12, align 8, !tbaa !9
  %18 = load ptr, ptr %12, align 8, !tbaa !9
  %19 = icmp eq ptr %18, null
  br i1 %19, label %20, label %29

20:                                               ; preds = %5
  call void @llvm.lifetime.start.p0(i64 8, ptr %14) #7
  %21 = load i64, ptr %10, align 8, !tbaa !98
  %22 = call i64 @_PyVectorcall_NARGS(i64 noundef %21)
  store i64 %22, ptr %14, align 8, !tbaa !98
  %23 = load ptr, ptr %7, align 8, !tbaa !114
  %24 = load ptr, ptr %8, align 8, !tbaa !4
  %25 = load ptr, ptr %9, align 8, !tbaa !104
  %26 = load i64, ptr %14, align 8, !tbaa !98
  %27 = load ptr, ptr %11, align 8, !tbaa !4
  %28 = call ptr @_PyObject_MakeTpCall(ptr noundef %23, ptr noundef %24, ptr noundef %25, i64 noundef %26, ptr noundef %27)
  store ptr %28, ptr %6, align 8
  store i32 1, ptr %15, align 4
  call void @llvm.lifetime.end.p0(i64 8, ptr %14) #7
  br label %40

29:                                               ; preds = %5
  %30 = load ptr, ptr %12, align 8, !tbaa !9
  %31 = load ptr, ptr %8, align 8, !tbaa !4
  %32 = load ptr, ptr %9, align 8, !tbaa !104
  %33 = load i64, ptr %10, align 8, !tbaa !98
  %34 = load ptr, ptr %11, align 8, !tbaa !4
  %35 = call ptr %30(ptr noundef %31, ptr noundef %32, i64 noundef %33, ptr noundef %34)
  store ptr %35, ptr %13, align 8, !tbaa !4
  %36 = load ptr, ptr %7, align 8, !tbaa !114
  %37 = load ptr, ptr %8, align 8, !tbaa !4
  %38 = load ptr, ptr %13, align 8, !tbaa !4
  %39 = call ptr @_Py_CheckFunctionResult(ptr noundef %36, ptr noundef %37, ptr noundef %38, ptr noundef null)
  store ptr %39, ptr %6, align 8
  store i32 1, ptr %15, align 4
  br label %40

40:                                               ; preds = %29, %20
  call void @llvm.lifetime.end.p0(i64 8, ptr %13) #7
  call void @llvm.lifetime.end.p0(i64 8, ptr %12) #7
  %41 = load ptr, ptr %6, align 8
  ret ptr %41
}

; Function Attrs: inlinehint nounwind uwtable
define internal ptr @_PyThreadState_GET() #3 {
  %1 = call align 8 ptr @llvm.threadlocal.address.p0(ptr align 8 @_Py_tss_tstate)
  %2 = load ptr, ptr %1, align 8, !tbaa !114
  ret ptr %2
}

; Function Attrs: inlinehint nounwind uwtable
define internal void @Py_XDECREF(ptr noundef %0) #3 {
  %2 = alloca ptr, align 8
  store ptr %0, ptr %2, align 8, !tbaa !4
  %3 = load ptr, ptr %2, align 8, !tbaa !4
  %4 = icmp ne ptr %3, null
  br i1 %4, label %5, label %7

5:                                                ; preds = %1
  %6 = load ptr, ptr %2, align 8, !tbaa !4
  call void @Py_DECREF(ptr noundef %6)
  br label %7

7:                                                ; preds = %5, %1
  ret void
}

; Function Attrs: alwaysinline nounwind uwtable
define internal void @Py_DECREF(ptr noundef %0) #4 {
  %2 = alloca ptr, align 8
  store ptr %0, ptr %2, align 8, !tbaa !4
  %3 = load ptr, ptr %2, align 8, !tbaa !4
  %4 = call i32 @_Py_IsImmortal(ptr noundef %3)
  %5 = icmp ne i32 %4, 0
  br i1 %5, label %6, label %7

6:                                                ; preds = %1
  br label %16

7:                                                ; preds = %1
  %8 = load ptr, ptr %2, align 8, !tbaa !4
  %9 = getelementptr inbounds nuw %struct._object, ptr %8, i32 0, i32 0
  %10 = getelementptr inbounds nuw %struct.anon, ptr %9, i32 0, i32 0
  %11 = load i32, ptr %10, align 8, !tbaa !112
  %12 = add i32 %11, -1
  store i32 %12, ptr %10, align 8, !tbaa !112
  %13 = icmp eq i32 %12, 0
  br i1 %13, label %14, label %16

14:                                               ; preds = %7
  %15 = load ptr, ptr %2, align 8, !tbaa !4
  call void @_Py_Dealloc(ptr noundef %15)
  br label %16

16:                                               ; preds = %6, %14, %7
  ret void
}

; Function Attrs: inlinehint nounwind uwtable
define internal ptr @_PyObject_CallNoArgs(ptr noundef %0) #3 {
  %2 = alloca ptr, align 8
  %3 = alloca ptr, align 8
  store ptr %0, ptr %2, align 8, !tbaa !4
  call void @llvm.lifetime.start.p0(i64 8, ptr %3) #7
  %4 = call ptr @_PyThreadState_GET()
  store ptr %4, ptr %3, align 8, !tbaa !114
  %5 = load ptr, ptr %3, align 8, !tbaa !114
  %6 = load ptr, ptr %2, align 8, !tbaa !4
  %7 = call ptr @_PyObject_VectorcallTstate(ptr noundef %5, ptr noundef %6, ptr noundef null, i64 noundef 0, ptr noundef null)
  call void @llvm.lifetime.end.p0(i64 8, ptr %3) #7
  ret ptr %7
}

; Function Attrs: nounwind uwtable
define internal ptr @calliter_iternext(ptr noundef %0) #0 {
  %2 = alloca ptr, align 8
  %3 = alloca ptr, align 8
  %4 = alloca ptr, align 8
  %5 = alloca i32, align 4
  %6 = alloca i32, align 4
  %7 = alloca ptr, align 8
  %8 = alloca ptr, align 8
  %9 = alloca ptr, align 8
  %10 = alloca ptr, align 8
  %11 = alloca ptr, align 8
  %12 = alloca ptr, align 8
  %13 = alloca ptr, align 8
  %14 = alloca ptr, align 8
  store ptr %0, ptr %3, align 8, !tbaa !9
  call void @llvm.lifetime.start.p0(i64 8, ptr %4) #7
  %15 = load ptr, ptr %3, align 8, !tbaa !9
  %16 = getelementptr inbounds nuw %struct.calliterobject, ptr %15, i32 0, i32 1
  %17 = load ptr, ptr %16, align 8, !tbaa !101
  %18 = icmp eq ptr %17, null
  br i1 %18, label %19, label %20

19:                                               ; preds = %1
  store ptr null, ptr %2, align 8
  store i32 1, ptr %5, align 4
  br label %110

20:                                               ; preds = %1
  %21 = load ptr, ptr %3, align 8, !tbaa !9
  %22 = getelementptr inbounds nuw %struct.calliterobject, ptr %21, i32 0, i32 1
  %23 = load ptr, ptr %22, align 8, !tbaa !101
  %24 = call ptr @_PyObject_CallNoArgs(ptr noundef %23)
  store ptr %24, ptr %4, align 8, !tbaa !4
  %25 = load ptr, ptr %4, align 8, !tbaa !4
  %26 = icmp ne ptr %25, null
  br i1 %26, label %27, label %76

27:                                               ; preds = %20
  %28 = load ptr, ptr %3, align 8, !tbaa !9
  %29 = getelementptr inbounds nuw %struct.calliterobject, ptr %28, i32 0, i32 2
  %30 = load ptr, ptr %29, align 8, !tbaa !103
  %31 = icmp ne ptr %30, null
  br i1 %31, label %32, label %76

32:                                               ; preds = %27
  call void @llvm.lifetime.start.p0(i64 4, ptr %6) #7
  %33 = load ptr, ptr %3, align 8, !tbaa !9
  %34 = getelementptr inbounds nuw %struct.calliterobject, ptr %33, i32 0, i32 2
  %35 = load ptr, ptr %34, align 8, !tbaa !103
  %36 = load ptr, ptr %4, align 8, !tbaa !4
  %37 = call i32 @PyObject_RichCompareBool(ptr noundef %35, ptr noundef %36, i32 noundef 2)
  store i32 %37, ptr %6, align 4, !tbaa !100
  %38 = load i32, ptr %6, align 4, !tbaa !100
  %39 = icmp eq i32 %38, 0
  br i1 %39, label %40, label %42

40:                                               ; preds = %32
  %41 = load ptr, ptr %4, align 8, !tbaa !4
  store ptr %41, ptr %2, align 8
  store i32 1, ptr %5, align 4
  br label %73

42:                                               ; preds = %32
  %43 = load i32, ptr %6, align 4, !tbaa !100
  %44 = icmp sgt i32 %43, 0
  br i1 %44, label %45, label %72

45:                                               ; preds = %42
  br label %46

46:                                               ; preds = %45
  call void @llvm.lifetime.start.p0(i64 8, ptr %7) #7
  %47 = load ptr, ptr %3, align 8, !tbaa !9
  %48 = getelementptr inbounds nuw %struct.calliterobject, ptr %47, i32 0, i32 1
  store ptr %48, ptr %7, align 8, !tbaa !104
  call void @llvm.lifetime.start.p0(i64 8, ptr %8) #7
  %49 = load ptr, ptr %7, align 8, !tbaa !104
  %50 = load ptr, ptr %49, align 8, !tbaa !4
  store ptr %50, ptr %8, align 8, !tbaa !4
  %51 = load ptr, ptr %8, align 8, !tbaa !4
  %52 = icmp ne ptr %51, null
  br i1 %52, label %53, label %56

53:                                               ; preds = %46
  %54 = load ptr, ptr %7, align 8, !tbaa !104
  store ptr null, ptr %54, align 8, !tbaa !4
  %55 = load ptr, ptr %8, align 8, !tbaa !4
  call void @Py_DECREF(ptr noundef %55)
  br label %56

56:                                               ; preds = %53, %46
  call void @llvm.lifetime.end.p0(i64 8, ptr %8) #7
  call void @llvm.lifetime.end.p0(i64 8, ptr %7) #7
  br label %57

57:                                               ; preds = %56
  br label %58

58:                                               ; preds = %57
  br label %59

59:                                               ; preds = %58
  call void @llvm.lifetime.start.p0(i64 8, ptr %9) #7
  %60 = load ptr, ptr %3, align 8, !tbaa !9
  %61 = getelementptr inbounds nuw %struct.calliterobject, ptr %60, i32 0, i32 2
  store ptr %61, ptr %9, align 8, !tbaa !104
  call void @llvm.lifetime.start.p0(i64 8, ptr %10) #7
  %62 = load ptr, ptr %9, align 8, !tbaa !104
  %63 = load ptr, ptr %62, align 8, !tbaa !4
  store ptr %63, ptr %10, align 8, !tbaa !4
  %64 = load ptr, ptr %10, align 8, !tbaa !4
  %65 = icmp ne ptr %64, null
  br i1 %65, label %66, label %69

66:                                               ; preds = %59
  %67 = load ptr, ptr %9, align 8, !tbaa !104
  store ptr null, ptr %67, align 8, !tbaa !4
  %68 = load ptr, ptr %10, align 8, !tbaa !4
  call void @Py_DECREF(ptr noundef %68)
  br label %69

69:                                               ; preds = %66, %59
  call void @llvm.lifetime.end.p0(i64 8, ptr %10) #7
  call void @llvm.lifetime.end.p0(i64 8, ptr %9) #7
  br label %70

70:                                               ; preds = %69
  br label %71

71:                                               ; preds = %70
  br label %72

72:                                               ; preds = %71, %42
  store i32 0, ptr %5, align 4
  br label %73

73:                                               ; preds = %72, %40
  call void @llvm.lifetime.end.p0(i64 4, ptr %6) #7
  %74 = load i32, ptr %5, align 4
  switch i32 %74, label %110 [
    i32 0, label %75
  ]

75:                                               ; preds = %73
  br label %108

76:                                               ; preds = %27, %20
  %77 = load ptr, ptr @PyExc_StopIteration, align 8, !tbaa !4
  %78 = call i32 @PyErr_ExceptionMatches(ptr noundef %77)
  %79 = icmp ne i32 %78, 0
  br i1 %79, label %80, label %107

80:                                               ; preds = %76
  call void @PyErr_Clear()
  br label %81

81:                                               ; preds = %80
  call void @llvm.lifetime.start.p0(i64 8, ptr %11) #7
  %82 = load ptr, ptr %3, align 8, !tbaa !9
  %83 = getelementptr inbounds nuw %struct.calliterobject, ptr %82, i32 0, i32 1
  store ptr %83, ptr %11, align 8, !tbaa !104
  call void @llvm.lifetime.start.p0(i64 8, ptr %12) #7
  %84 = load ptr, ptr %11, align 8, !tbaa !104
  %85 = load ptr, ptr %84, align 8, !tbaa !4
  store ptr %85, ptr %12, align 8, !tbaa !4
  %86 = load ptr, ptr %12, align 8, !tbaa !4
  %87 = icmp ne ptr %86, null
  br i1 %87, label %88, label %91

88:                                               ; preds = %81
  %89 = load ptr, ptr %11, align 8, !tbaa !104
  store ptr null, ptr %89, align 8, !tbaa !4
  %90 = load ptr, ptr %12, align 8, !tbaa !4
  call void @Py_DECREF(ptr noundef %90)
  br label %91

91:                                               ; preds = %88, %81
  call void @llvm.lifetime.end.p0(i64 8, ptr %12) #7
  call void @llvm.lifetime.end.p0(i64 8, ptr %11) #7
  br label %92

92:                                               ; preds = %91
  br label %93

93:                                               ; preds = %92
  br label %94

94:                                               ; preds = %93
  call void @llvm.lifetime.start.p0(i64 8, ptr %13) #7
  %95 = load ptr, ptr %3, align 8, !tbaa !9
  %96 = getelementptr inbounds nuw %struct.calliterobject, ptr %95, i32 0, i32 2
  store ptr %96, ptr %13, align 8, !tbaa !104
  call void @llvm.lifetime.start.p0(i64 8, ptr %14) #7
  %97 = load ptr, ptr %13, align 8, !tbaa !104
  %98 = load ptr, ptr %97, align 8, !tbaa !4
  store ptr %98, ptr %14, align 8, !tbaa !4
  %99 = load ptr, ptr %14, align 8, !tbaa !4
  %100 = icmp ne ptr %99, null
  br i1 %100, label %101, label %104

101:                                              ; preds = %94
  %102 = load ptr, ptr %13, align 8, !tbaa !104
  store ptr null, ptr %102, align 8, !tbaa !4
  %103 = load ptr, ptr %14, align 8, !tbaa !4
  call void @Py_DECREF(ptr noundef %103)
  br label %104

104:                                              ; preds = %101, %94
  call void @llvm.lifetime.end.p0(i64 8, ptr %14) #7
  call void @llvm.lifetime.end.p0(i64 8, ptr %13) #7
  br label %105

105:                                              ; preds = %104
  br label %106

106:                                              ; preds = %105
  br label %107

107:                                              ; preds = %106, %76
  br label %108

108:                                              ; preds = %107, %75
  %109 = load ptr, ptr %4, align 8, !tbaa !4
  call void @Py_XDECREF(ptr noundef %109)
  store ptr null, ptr %2, align 8
  store i32 1, ptr %5, align 4
  br label %110

110:                                              ; preds = %108, %73, %19
  call void @llvm.lifetime.end.p0(i64 8, ptr %4) #7
  %111 = load ptr, ptr %2, align 8
  ret ptr %111
}