; Function Attrs: nounwind uwtable
define internal ptr @calliter_iternext(ptr noundef captures(none) %0) #0 {
  %2 = getelementptr inbounds nuw i8, ptr %0, i64 16
  %3 = load ptr, ptr %2, align 8, !tbaa !100
  %4 = icmp eq ptr %3, null
  br i1 %4, label %.critedge, label %5

5:                                                ; preds = %1
  %6 = tail call align 8 ptr @llvm.threadlocal.address.p0(ptr align 8 @_Py_tss_tstate)
  %7 = load ptr, ptr %6, align 8, !tbaa !15
  %8 = getelementptr i8, ptr %3, i64 8
  %.val.i.i.i = load ptr, ptr %8, align 8, !tbaa !103
  %9 = getelementptr i8, ptr %.val.i.i.i, i64 168
  %.val6.i.i.i = load i64, ptr %9, align 8, !tbaa !104
  %10 = and i64 %.val6.i.i.i, 2048
  %.not.i.i.i = icmp eq i64 %10, 0
  br i1 %.not.i.i.i, label %_PyVectorcall_FunctionInline.exit.thread.i.i, label %_PyVectorcall_FunctionInline.exit.i.i

_PyVectorcall_FunctionInline.exit.i.i:            ; preds = %5
  %11 = getelementptr inbounds nuw i8, ptr %.val.i.i.i, i64 56
  %12 = load i64, ptr %11, align 8, !tbaa !111
  %13 = getelementptr i8, ptr %3, i64 %12
  %.0.copyload.i.i.i = load ptr, ptr %13, align 1
  %14 = icmp eq ptr %.0.copyload.i.i.i, null
  br i1 %14, label %_PyVectorcall_FunctionInline.exit.thread.i.i, label %16

_PyVectorcall_FunctionInline.exit.thread.i.i:     ; preds = %_PyVectorcall_FunctionInline.exit.i.i, %5
  %15 = tail call ptr @_PyObject_MakeTpCall(ptr noundef %7, ptr noundef nonnull %3, ptr noundef null, i64 noundef 0, ptr noundef null) #4
  br label %_PyObject_CallNoArgs.exit

16:                                               ; preds = %_PyVectorcall_FunctionInline.exit.i.i
  %17 = tail call ptr %.0.copyload.i.i.i(ptr noundef nonnull %3, ptr noundef null, i64 noundef 0, ptr noundef null) #4
  %18 = tail call ptr @_Py_CheckFunctionResult(ptr noundef %7, ptr noundef nonnull %3, ptr noundef %17, ptr noundef null) #4
  br label %_PyObject_CallNoArgs.exit

_PyObject_CallNoArgs.exit:                        ; preds = %_PyVectorcall_FunctionInline.exit.thread.i.i, %16
  %.0.i.i = phi ptr [ %15, %_PyVectorcall_FunctionInline.exit.thread.i.i ], [ %18, %16 ]
  %.not = icmp eq ptr %.0.i.i, null
  br i1 %.not, label %41, label %19

19:                                               ; preds = %_PyObject_CallNoArgs.exit
  %20 = getelementptr inbounds nuw i8, ptr %0, i64 24
  %21 = load ptr, ptr %20, align 8, !tbaa !102
  %.not40 = icmp eq ptr %21, null
  br i1 %.not40, label %41, label %22

22:                                               ; preds = %19
  %23 = tail call i32 @PyObject_RichCompareBool(ptr noundef nonnull %21, ptr noundef nonnull %.0.i.i, i32 noundef 2) #4
  %.not46 = icmp eq i32 %23, 0
  br i1 %.not46, label %.critedge, label %24

24:                                               ; preds = %22
  %25 = icmp sgt i32 %23, 0
  br i1 %25, label %26, label %Py_DECREF.exit48.thread

26:                                               ; preds = %24
  %27 = load ptr, ptr %2, align 8, !tbaa !99
  %.not44 = icmp eq ptr %27, null
  br i1 %.not44, label %Py_DECREF.exit, label %28

28:                                               ; preds = %26
  store ptr null, ptr %2, align 8, !tbaa !99
  %29 = load i32, ptr %27, align 8, !tbaa !13
  %.not.i = icmp sgt i32 %29, -1
  br i1 %.not.i, label %30, label %Py_DECREF.exit

30:                                               ; preds = %28
  %31 = add nsw i32 %29, -1
  store i32 %31, ptr %27, align 8, !tbaa !13
  %32 = icmp eq i32 %31, 0
  br i1 %32, label %33, label %Py_DECREF.exit

33:                                               ; preds = %30
  tail call void @_Py_Dealloc(ptr noundef nonnull %27) #4
  br label %Py_DECREF.exit

Py_DECREF.exit:                                   ; preds = %33, %30, %28, %26
  %34 = load ptr, ptr %20, align 8, !tbaa !99
  %.not45 = icmp eq ptr %34, null
  br i1 %.not45, label %Py_DECREF.exit48.thread, label %35

35:                                               ; preds = %Py_DECREF.exit
  store ptr null, ptr %20, align 8, !tbaa !99
  %36 = load i32, ptr %34, align 8, !tbaa !13
  %.not.i47 = icmp sgt i32 %36, -1
  br i1 %.not.i47, label %37, label %Py_DECREF.exit48.thread

37:                                               ; preds = %35
  %38 = add nsw i32 %36, -1
  store i32 %38, ptr %34, align 8, !tbaa !13
  %39 = icmp eq i32 %38, 0
  br i1 %39, label %40, label %Py_DECREF.exit48.thread

40:                                               ; preds = %37
  tail call void @_Py_Dealloc(ptr noundef nonnull %34) #4
  br label %Py_DECREF.exit48.thread

41:                                               ; preds = %19, %_PyObject_CallNoArgs.exit
  %42 = load ptr, ptr @PyExc_StopIteration, align 8, !tbaa !99
  %43 = tail call i32 @PyErr_ExceptionMatches(ptr noundef %42) #4
  %.not41 = icmp eq i32 %43, 0
  br i1 %.not41, label %Py_DECREF.exit48, label %44

44:                                               ; preds = %41
  tail call void @PyErr_Clear() #4
  %45 = load ptr, ptr %2, align 8, !tbaa !99
  %.not42 = icmp eq ptr %45, null
  br i1 %.not42, label %Py_DECREF.exit50, label %46

46:                                               ; preds = %44
  store ptr null, ptr %2, align 8, !tbaa !99
  %47 = load i32, ptr %45, align 8, !tbaa !13
  %.not.i49 = icmp sgt i32 %47, -1
  br i1 %.not.i49, label %48, label %Py_DECREF.exit50

48:                                               ; preds = %46
  %49 = add nsw i32 %47, -1
  store i32 %49, ptr %45, align 8, !tbaa !13
  %50 = icmp eq i32 %49, 0
  br i1 %50, label %51, label %Py_DECREF.exit50

51:                                               ; preds = %48
  tail call void @_Py_Dealloc(ptr noundef nonnull %45) #4
  br label %Py_DECREF.exit50

Py_DECREF.exit50:                                 ; preds = %51, %48, %46, %44
  %52 = getelementptr inbounds nuw i8, ptr %0, i64 24
  %53 = load ptr, ptr %52, align 8, !tbaa !99
  %.not43 = icmp eq ptr %53, null
  br i1 %.not43, label %Py_DECREF.exit48, label %54

54:                                               ; preds = %Py_DECREF.exit50
  store ptr null, ptr %52, align 8, !tbaa !99
  %55 = load i32, ptr %53, align 8, !tbaa !13
  %.not.i51 = icmp sgt i32 %55, -1
  br i1 %.not.i51, label %56, label %Py_DECREF.exit48

56:                                               ; preds = %54
  %57 = add nsw i32 %55, -1
  store i32 %57, ptr %53, align 8, !tbaa !13
  %58 = icmp eq i32 %57, 0
  br i1 %58, label %59, label %Py_DECREF.exit48

59:                                               ; preds = %56
  tail call void @_Py_Dealloc(ptr noundef nonnull %53) #4
  br label %Py_DECREF.exit48

Py_DECREF.exit48:                                 ; preds = %59, %56, %54, %Py_DECREF.exit50, %41
  br i1 %.not, label %.critedge, label %Py_DECREF.exit48.thread

Py_DECREF.exit48.thread:                          ; preds = %40, %37, %35, %24, %Py_DECREF.exit, %Py_DECREF.exit48
  %60 = load i32, ptr %.0.i.i, align 8, !tbaa !13
  %.not.i.i = icmp sgt i32 %60, -1
  br i1 %.not.i.i, label %61, label %.critedge

61:                                               ; preds = %Py_DECREF.exit48.thread
  %62 = add nsw i32 %60, -1
  store i32 %62, ptr %.0.i.i, align 8, !tbaa !13
  %63 = icmp eq i32 %62, 0
  br i1 %63, label %64, label %.critedge

64:                                               ; preds = %61
  tail call void @_Py_Dealloc(ptr noundef nonnull %.0.i.i) #4
  br label %.critedge

.critedge:                                        ; preds = %64, %61, %Py_DECREF.exit48.thread, %Py_DECREF.exit48, %22, %1
  %.0 = phi ptr [ null, %1 ], [ %.0.i.i, %22 ], [ null, %Py_DECREF.exit48 ], [ null, %Py_DECREF.exit48.thread ], [ null, %61 ], [ null, %64 ]
  ret ptr %.0
}